target datalayout = "e-m:e-p270:32:32-p271:32:32-p272:64:64-i64:64-i128:128-f80:128-n8:16:32:64-S128"
target triple = "x86_64-pc-linux-gnu"

%struct.signals = type { [8 x i8], i32 }

; Function Attrs: inlinehint nounwind sspstrong willreturn memory(none) uwtable
define internal i64 @RB_INT2FIX(i64 noundef %0) #6 {
  %2 = alloca i64, align 8
  %3 = alloca i64, align 8
  %4 = alloca i64, align 8
  %5 = alloca i64, align 8
  %6 = alloca i64, align 8
  %7 = alloca i64, align 8
  store i64 %0, ptr %2, align 8, !tbaa !22
  call void @llvm.lifetime.start.p0(i64 8, ptr %3) #22
  %8 = load i64, ptr %2, align 8, !tbaa !22
  store i64 %8, ptr %3, align 8, !tbaa !22
  call void @llvm.lifetime.start.p0(i64 8, ptr %4) #22
  %9 = load i64, ptr %3, align 8, !tbaa !22
  %10 = shl i64 %9, 1
  %11 = add i64 %10, 1
  store i64 %11, ptr %4, align 8, !tbaa !22
  call void @llvm.lifetime.start.p0(i64 8, ptr %5) #22
  %12 = load i64, ptr %4, align 8, !tbaa !22
  store i64 %12, ptr %5, align 8, !tbaa !22
  call void @llvm.lifetime.start.p0(i64 8, ptr %6) #22
  %13 = load i64, ptr %5, align 8, !tbaa !22
  store i64 %13, ptr %6, align 8, !tbaa !22
  call void @llvm.lifetime.start.p0(i64 8, ptr %7) #22
  %14 = load i64, ptr %6, align 8, !tbaa !22
  store i64 %14, ptr %7, align 8, !tbaa !22
  %15 = load i64, ptr %7, align 8, !tbaa !22
  call void @llvm.lifetime.end.p0(i64 8, ptr %7) #22
  call void @llvm.lifetime.end.p0(i64 8, ptr %6) #22
  call void @llvm.lifetime.end.p0(i64 8, ptr %5) #22
  call void @llvm.lifetime.end.p0(i64 8, ptr %4) #22
  call void @llvm.lifetime.end.p0(i64 8, ptr %3) #22
  ret i64 %15
}

; Function Attrs: nounwind sspstrong uwtable
define internal i64 @sig_list(i64 noundef %0) #1 {
  %2 = alloca i64, align 8
  %3 = alloca i64, align 8
  %4 = alloca ptr, align 8
  store i64 %0, ptr %2, align 8, !tbaa !22
  call void @llvm.lifetime.start.p0(i64 8, ptr %3) #22
  %5 = call i64 @rb_hash_new()
  store i64 %5, ptr %3, align 8, !tbaa !22
  call void @llvm.lifetime.start.p0(i64 8, ptr %4) #22
  store ptr @siglist, ptr %4, align 8, !tbaa !11
  br label %6

6:                                                ; preds = %33, %1
  %7 = load ptr, ptr %4, align 8, !tbaa !11
  %8 = icmp ult ptr %7, getelementptr (%struct.signals, ptr @siglist, i64 34)
  br i1 %8, label %9, label %36

9:                                                ; preds = %6
  %10 = load i64, ptr %3, align 8, !tbaa !22
  br i1 false, label %11, label %20

11:                                               ; preds = %9
  %12 = load ptr, ptr %4, align 8, !tbaa !11
  %13 = getelementptr inbounds nuw %struct.signals, ptr %12, i32 0, i32 0
  %14 = getelementptr inbounds [8 x i8], ptr %13, i64 0, i64 0
  %15 = load ptr, ptr %4, align 8, !tbaa !11
  %16 = getelementptr inbounds nuw %struct.signals, ptr %15, i32 0, i32 0
  %17 = getelementptr inbounds [8 x i8], ptr %16, i64 0, i64 0
  %18 = call i64 @strlen(ptr noundef %17) #29
  %19 = call i64 @rb_fstring_new(ptr noundef %14, i64 noundef %18)
  br label %25

20:                                               ; preds = %9
  %21 = load ptr, ptr %4, align 8, !tbaa !11
  %22 = getelementptr inbounds nuw %struct.signals, ptr %21, i32 0, i32 0
  %23 = getelementptr inbounds [8 x i8], ptr %22, i64 0, i64 0
  %24 = call i64 @rb_fstring_cstr(ptr noundef %23)
  br label %25

25:                                               ; preds = %20, %11
  %26 = phi i64 [ %19, %11 ], [ %24, %20 ]
  %27 = load ptr, ptr %4, align 8, !tbaa !11
  %28 = getelementptr inbounds nuw %struct.signals, ptr %27, i32 0, i32 1
  %29 = load i32, ptr %28, align 4, !tbaa !14
  %30 = sext i32 %29 to i64
  %31 = call i64 @RB_INT2FIX(i64 noundef %30) #28
  %32 = call i64 @rb_hash_aset(i64 noundef %10, i64 noundef %26, i64 noundef %31)
  br label %33

33:                                               ; preds = %25
  %34 = load ptr, ptr %4, align 8, !tbaa !11
  %35 = getelementptr %struct.signals, ptr %34, i32 1
  store ptr %35, ptr %4, align 8, !tbaa !11
  br label %6, !llvm.loop !87

36:                                               ; preds = %6
  %37 = load i64, ptr %3, align 8, !tbaa !22
  call void @llvm.lifetime.end.p0(i64 8, ptr %4) #22
  call void @llvm.lifetime.end.p0(i64 8, ptr %3) #22
  ret i64 %37
}