; Function Attrs: nounwind sspstrong uwtable
define internal i64 @sig_list(i64 %0) #1 {
  %2 = tail call i64 @rb_hash_new() #17
  br label %3

3:                                                ; preds = %1, %3
  %.05 = phi ptr [ @siglist, %1 ], [ %11, %3 ]
  %4 = tail call i64 @rb_fstring_cstr(ptr noundef %.05) #17
  %5 = getelementptr inbounds nuw i8, ptr %.05, i64 8
  %6 = load i32, ptr %5, align 4, !tbaa !7
  %7 = sext i32 %6 to i64
  %8 = shl nsw i64 %7, 1
  %9 = or disjoint i64 %8, 1
  %10 = tail call i64 @rb_hash_aset(i64 noundef %2, i64 noundef %4, i64 noundef %9) #17
  %11 = getelementptr i8, ptr %.05, i64 12
  %12 = icmp ult ptr %11, getelementptr inbounds nuw (i8, ptr @siglist, i64 408)
  br i1 %12, label %3, label %13, !llvm.loop !104

13:                                               ; preds = %3
  ret i64 %2
}